; ModuleID = '49/1110.c'
source_filename = "49/1110.c"
target datalayout = "e-m:e-p270:32:32-p271:32:32-p272:64:64-i64:64-f80:128-n8:16:32:64-S128"
target triple = "x86_64-pc-linux-gnu"

@.str = private unnamed_addr constant [3 x i8] c"%s\00", align 1
@.str.1 = private unnamed_addr constant [3 x i8] c"%c\00", align 1
@.str.2 = private unnamed_addr constant [2 x i8] c"\0A\00", align 1

; Function Attrs: noinline nounwind uwtable
define dso_local i32 @main() #0 {
  %1 = alloca i32, align 4
  %2 = alloca [500 x i8], align 16
  %3 = alloca [500 x i8], align 16
  %4 = alloca [500 x i8], align 16
  %5 = alloca i32, align 4
  %6 = alloca i32, align 4
  %7 = alloca i32, align 4
  %8 = alloca i32, align 4
  %9 = alloca i32, align 4
  %10 = alloca i32, align 4
  %11 = alloca i32, align 4
  %12 = alloca i32, align 4
  store i32 0, i32* %1, align 4
  store i32 0, i32* %6, align 4
  store i32 0, i32* %8, align 4
  store i32 0, i32* %12, align 4
  %13 = getelementptr inbounds [500 x i8], [500 x i8]* %2, i64 0, i64 0
  %14 = call i32 (i8*, ...) @__isoc99_scanf(i8* getelementptr inbounds ([3 x i8], [3 x i8]* @.str, i64 0, i64 0), i8* %13)
  store i32 2, i32* %7, align 4
  %15 = getelementptr inbounds [500 x i8], [500 x i8]* %2, i64 0, i64 0
  %16 = call i64 @strlen(i8* %15) #3
  %17 = trunc i64 %16 to i32
  store i32 %17, i32* %9, align 4
  br label %18

18:                                               ; preds = %116, %0
  %19 = load i32, i32* %7, align 4
  %20 = load i32, i32* %9, align 4
  %21 = icmp sle i32 %19, %20
  br i1 %21, label %22, label %119

22:                                               ; preds = %18
  store i32 0, i32* %5, align 4
  br label %23

23:                                               ; preds = %113, %22
  %24 = load i32, i32* %5, align 4
  %25 = load i32, i32* %9, align 4
  %26 = add nsw i32 %25, 1
  %27 = load i32, i32* %7, align 4
  %28 = sub nsw i32 %26, %27
  %29 = icmp slt i32 %24, %28
  br i1 %29, label %30, label %116

30:                                               ; preds = %23
  %31 = load i32, i32* %5, align 4
  store i32 %31, i32* %10, align 4
  %32 = load i32, i32* %5, align 4
  store i32 %32, i32* %11, align 4
  store i32 0, i32* %8, align 4
  br label %33

33:                                               ; preds = %62, %30
  %34 = load i32, i32* %8, align 4
  %35 = load i32, i32* %7, align 4
  %36 = sub nsw i32 %35, 1
  %37 = icmp sle i32 %34, %36
  br i1 %37, label %38, label %65

38:                                               ; preds = %33
  %39 = load i32, i32* %10, align 4
  %40 = load i32, i32* %7, align 4
  %41 = add nsw i32 %39, %40
  %42 = sub nsw i32 %41, 1
  %43 = sext i32 %42 to i64
  %44 = getelementptr inbounds [500 x i8], [500 x i8]* %2, i64 0, i64 %43
  %45 = load i8, i8* %44, align 1
  %46 = load i32, i32* %6, align 4
  %47 = sext i32 %46 to i64
  %48 = getelementptr inbounds [500 x i8], [500 x i8]* %3, i64 0, i64 %47
  store i8 %45, i8* %48, align 1
  %49 = load i32, i32* %10, align 4
  %50 = sub nsw i32 %49, 1
  store i32 %50, i32* %10, align 4
  %51 = load i32, i32* %11, align 4
  %52 = sext i32 %51 to i64
  %53 = getelementptr inbounds [500 x i8], [500 x i8]* %2, i64 0, i64 %52
  %54 = load i8, i8* %53, align 1
  %55 = load i32, i32* %6, align 4
  %56 = sext i32 %55 to i64
  %57 = getelementptr inbounds [500 x i8], [500 x i8]* %4, i64 0, i64 %56
  store i8 %54, i8* %57, align 1
  %58 = load i32, i32* %11, align 4
  %59 = add nsw i32 %58, 1
  store i32 %59, i32* %11, align 4
  %60 = load i32, i32* %6, align 4
  %61 = add nsw i32 %60, 1
  store i32 %61, i32* %6, align 4
  br label %62

62:                                               ; preds = %38
  %63 = load i32, i32* %8, align 4
  %64 = add nsw i32 %63, 1
  store i32 %64, i32* %8, align 4
  br label %33

65:                                               ; preds = %33
  store i32 0, i32* %6, align 4
  br label %66

66:                                               ; preds = %87, %65
  %67 = load i32, i32* %6, align 4
  %68 = load i32, i32* %7, align 4
  %69 = icmp slt i32 %67, %68
  br i1 %69, label %70, label %90

70:                                               ; preds = %66
  %71 = load i32, i32* %6, align 4
  %72 = sext i32 %71 to i64
  %73 = getelementptr inbounds [500 x i8], [500 x i8]* %3, i64 0, i64 %72
  %74 = load i8, i8* %73, align 1
  %75 = sext i8 %74 to i32
  %76 = load i32, i32* %6, align 4
  %77 = sext i32 %76 to i64
  %78 = getelementptr inbounds [500 x i8], [500 x i8]* %4, i64 0, i64 %77
  %79 = load i8, i8* %78, align 1
  %80 = sext i8 %79 to i32
  %81 = icmp eq i32 %75, %80
  br i1 %81, label %82, label %85

82:                                               ; preds = %70
  %83 = load i32, i32* %12, align 4
  %84 = add nsw i32 %83, 1
  store i32 %84, i32* %12, align 4
  br label %86

85:                                               ; preds = %70
  br label %86

86:                                               ; preds = %85, %82
  br label %87

87:                                               ; preds = %86
  %88 = load i32, i32* %6, align 4
  %89 = add nsw i32 %88, 1
  store i32 %89, i32* %6, align 4
  br label %66

90:                                               ; preds = %66
  %91 = load i32, i32* %12, align 4
  %92 = load i32, i32* %7, align 4
  %93 = icmp eq i32 %91, %92
  br i1 %93, label %94, label %111

94:                                               ; preds = %90
  store i32 0, i32* %6, align 4
  br label %95

95:                                               ; preds = %106, %94
  %96 = load i32, i32* %6, align 4
  %97 = load i32, i32* %7, align 4
  %98 = icmp slt i32 %96, %97
  br i1 %98, label %99, label %109

99:                                               ; preds = %95
  %100 = load i32, i32* %6, align 4
  %101 = sext i32 %100 to i64
  %102 = getelementptr inbounds [500 x i8], [500 x i8]* %4, i64 0, i64 %101
  %103 = load i8, i8* %102, align 1
  %104 = sext i8 %103 to i32
  %105 = call i32 (i8*, ...) @printf(i8* getelementptr inbounds ([3 x i8], [3 x i8]* @.str.1, i64 0, i64 0), i32 %104)
  br label %106

106:                                              ; preds = %99
  %107 = load i32, i32* %6, align 4
  %108 = add nsw i32 %107, 1
  store i32 %108, i32* %6, align 4
  br label %95

109:                                              ; preds = %95
  %110 = call i32 (i8*, ...) @printf(i8* getelementptr inbounds ([2 x i8], [2 x i8]* @.str.2, i64 0, i64 0))
  br label %112

111:                                              ; preds = %90
  br label %112

112:                                              ; preds = %111, %109
  store i32 0, i32* %6, align 4
  store i32 0, i32* %12, align 4
  store i32 0, i32* %8, align 4
  br label %113

113:                                              ; preds = %112
  %114 = load i32, i32* %5, align 4
  %115 = add nsw i32 %114, 1
  store i32 %115, i32* %5, align 4
  br label %23

116:                                              ; preds = %23
  %117 = load i32, i32* %7, align 4
  %118 = add nsw i32 %117, 1
  store i32 %118, i32* %7, align 4
  store i32 0, i32* %5, align 4
  br label %18

119:                                              ; preds = %18
  ret i32 0
}

declare dso_local i32 @__isoc99_scanf(i8*, ...) #1

; Function Attrs: nounwind readonly
declare dso_local i64 @strlen(i8*) #2

declare dso_local i32 @printf(i8*, ...) #1


!llvm.module.flags = !{!0}
!llvm.ident = !{!1}

!0 = !{i32 1, !"wchar_size", i32 4}
!1 = !{!"clang version 10.0.0-4ubuntu1 "}
